 winets2d

 Timestamp is 3726ee2e (Wed Apr 28 04:17:02 1999)

 Preferred load address is 10000000

 Start         Length     Name                   Class
 0001:00000000 00005a72H .text                   CODE
 0002:00000000 0000005dH .rdata                  DATA
 0002:00000060 000001c2H .edata                  DATA
 0003:00000000 00000004H .CRT$XCA                DATA
 0003:00000004 00000004H .CRT$XCZ                DATA
 0003:00000008 00000004H .CRT$XIA                DATA
 0003:0000000c 00000004H .CRT$XIZ                DATA
 0003:00000010 00001c0cH .data                   DATA
 0003:00001c1c 00000028H .bss                    DATA
 0004:00000000 00000050H .idata$2                DATA
 0004:00000050 00000014H .idata$3                DATA
 0004:00000064 000000f4H .idata$4                DATA
 0004:00000158 000000f4H .idata$5                DATA
 0004:0000024c 0000021cH .idata$6                DATA
 0005:00000000 0000007cH .rsrc$01                DATA
 0005:00000080 00000034H .rsrc$02                DATA

  Address         Publics by Value              Rva+Base   Lib:Object

 0001:00000000       _adialup_autodial_enabled  10001000 f adialup.obj
 0001:0000009f       _adialup_autodial_set      1000109f f adialup.obj
 0001:0000011a       _adialup_is_active         1000111a f adialup.obj
 0001:0000029b       _adialup_willdial          1000129b f adialup.obj
 0001:000002e0       _ddprintf                  100012e0 f ddprint.obj
 0001:000002f0       _dcstNextKey               100012f0 f dictset.obj
 0001:00000348       _dcstHashvalue             10001348 f dictset.obj
 0001:00000405       _dcstCreate                10001405 f dictset.obj
 0001:0000064d       _dcstDestroy               1000164d f dictset.obj
 0001:00000688       _dcstAdd                   10001688 f dictset.obj
 0001:00000783       _dcstAddEx                 10001783 f dictset.obj
 0001:000008b4       _dcstReplace               100018b4 f dictset.obj
 0001:0000091a       _dcstReplaceEx             1000191a f dictset.obj
 0001:00000984       _dcstDeleteValue           10001984 f dictset.obj
 0001:00000a12       _dcstDeleteKey             10001a12 f dictset.obj
 0001:00000bfc       _dcstFindKey               10001bfc f dictset.obj
 0001:00000d10       _dcstFindValue             10001d10 f dictset.obj
 0001:00000db2       _dcstForEach               10001db2 f dictset.obj
 0001:00000e5e       _dcstFreeze                10001e5e f dictset.obj
 0001:00000e9f       _dcstThaw                  10001e9f f dictset.obj
 0001:00000f10       _eclock_win32              10001f10 f eclock.obj
 0001:00000fa0       _logPkt_getFilename        10001fa0 f logpkt.obj
 0001:00000fd4       _logPkt_open               10001fd4 f logpkt.obj
 0001:0000112b       _logPkt_close              1000212b f logpkt.obj
 0001:00001152       _logPkt                    10002152 f logpkt.obj
 0001:00001370       _TCPWIN_Create             10002370 f WSTCP.obj
 0001:00002d27       _TCPWIN_Destroy            10003d27 f WSTCP.obj
 0001:00002db6       _TCPWIN_Address2Handle     10003db6 f WSTCP.obj
 0001:00003700       _TCPWIN_Handle2Address     10004700 f WSTCP.obj
 0001:0000394c       _TCPWIN_PutPacket          1000494c f WSTCP.obj
 0001:00003ca4       _TCPWIN_GetPacket          10004ca4 f WSTCP.obj
 0001:00003ff0       _commNoOp                  10004ff0 f WSTCPdll.obj
 0001:00004073       _commEnumPorts             10005073 f WSTCPdll.obj
 0001:00004098       _commInit                  10005098 f WSTCPdll.obj
 0001:000041b5       _commTerm                  100051b5 f WSTCPdll.obj
 0001:00004254       _commDriverInfo            10005254 f WSTCPdll.obj
 0001:000042b9       _commPlayerInfo            100052b9 f WSTCPdll.obj
 0001:00004590       _commTxFull                10005590 f WSTCPdll.obj
 0001:000045ea       _commTxPkt                 100055ea f WSTCPdll.obj
 0001:000047ab       _commPeekPkt               100057ab f WSTCPdll.obj
 0001:00004822       _commRxPkt                 10005822 f WSTCPdll.obj
 0001:00004bcc       _commScanAddr              10005bcc f WSTCPdll.obj
 0001:00004dd3       _commPrintAddr             10005dd3 f WSTCPdll.obj
 0001:00004f74       _commGroupAlloc            10005f74 f WSTCPdll.obj
 0001:00004fce       _commGroupFree             10005fce f WSTCPdll.obj
 0001:00005028       _commGroupAdd              10006028 f WSTCPdll.obj
 0001:00005082       _commSetParam              10006082 f WSTCPdll.obj
 0001:00005141       _commSayHi                 10006141 f WSTCPdll.obj
 0001:000052d2       _commSayBye                100062d2 f WSTCPdll.obj
 0001:0000542a       _DllMain@12                1000642a f WSTCPdll.obj
 0001:000054a0       _CloseHandle@4             100064a0 f kernel32:KERNEL32.dll
 0001:000054a6       _FreeLibrary@4             100064a6 f kernel32:KERNEL32.dll
 0001:000054ac       _GetProcAddress@8          100064ac f kernel32:KERNEL32.dll
 0001:000054b2       _LoadLibraryA@4            100064b2 f kernel32:KERNEL32.dll
 0001:000054b8       _GlobalFree@4              100064b8 f kernel32:KERNEL32.dll
 0001:000054be       _GlobalAlloc@8             100064be f kernel32:KERNEL32.dll
 0001:000054c4       _GetTickCount@0            100064c4 f kernel32:KERNEL32.dll
 0001:000054ca       _GetSystemTime@4           100064ca f kernel32:KERNEL32.dll
 0001:000054d0       _OutputDebugStringA@4      100064d0 f kernel32:KERNEL32.dll
 0001:000054d6       _ioctlsocket@12            100064d6 f wsock32:WSOCK32.dll
 0001:000054dc       _htons@4                   100064dc f wsock32:WSOCK32.dll
 0001:000054e2       _ntohs@4                   100064e2 f wsock32:WSOCK32.dll
 0001:000054e8       _WSAGetLastError@0         100064e8 f wsock32:WSOCK32.dll
 0001:000054ee       _getsockname@12            100064ee f wsock32:WSOCK32.dll
 0001:000054f4       _bind@12                   100064f4 f wsock32:WSOCK32.dll
 0001:000054fa       _inet_ntoa@4               100064fa f wsock32:WSOCK32.dll
 0001:00005500       _setsockopt@20             10006500 f wsock32:WSOCK32.dll
 0001:00005506       _socket@12                 10006506 f wsock32:WSOCK32.dll
 0001:0000550c       _WSAStartup@8              1000650c f wsock32:WSOCK32.dll
 0001:00005512       _recvfrom@24               10006512 f wsock32:WSOCK32.dll
 0001:00005518       _sendto@24                 10006518 f wsock32:WSOCK32.dll
 0001:0000551e       _closesocket@4             1000651e f wsock32:WSOCK32.dll
 0001:00005524       _connect@12                10006524 f wsock32:WSOCK32.dll
 0001:0000552a       _inet_addr@4               1000652a f wsock32:WSOCK32.dll
 0001:00005530       _gethostbyname@4           10006530 f wsock32:WSOCK32.dll
 0001:00005536       _gethostname@8             10006536 f wsock32:WSOCK32.dll
 0001:0000553c       _WSACleanup@0              1000653c f wsock32:WSOCK32.dll
 0001:00005542       _ntohl@4                   10006542 f wsock32:WSOCK32.dll
 0001:00005548       _RegQueryValueExA@24       10006548 f advapi32:ADVAPI32.dll
 0001:0000554e       _RegOpenKeyExA@20          1000654e f advapi32:ADVAPI32.dll
 0001:00005554       _RegSetValueExA@24         10006554 f advapi32:ADVAPI32.dll
 0001:00005560       __alloca_probe             10006560   MSVCRTD:chkstk.obj
 0001:00005560       __chkstk                   10006560   MSVCRTD:chkstk.obj
 0001:00005590       _memset                    10006590 f MSVCRTD:MSVCRTD.dll
 0001:00005596       __assert                   10006596 f MSVCRTD:MSVCRTD.dll
 0001:0000559c       _memcpy                    1000659c f MSVCRTD:MSVCRTD.dll
 0001:000055a2       _memcmp                    100065a2 f MSVCRTD:MSVCRTD.dll
 0001:000055a8       _sprintf                   100065a8 f MSVCRTD:MSVCRTD.dll
 0001:000055ae       _fopen                     100065ae f MSVCRTD:MSVCRTD.dll
 0001:000055b4       _rename                    100065b4 f MSVCRTD:MSVCRTD.dll
 0001:000055ba       _fclose                    100065ba f MSVCRTD:MSVCRTD.dll
 0001:000055c0       _fprintf                   100065c0 f MSVCRTD:MSVCRTD.dll
 0001:000055c6       ___p__pctype               100065c6 f MSVCRTD:MSVCRTD.dll
 0001:000055cc       __isctype                  100065cc f MSVCRTD:MSVCRTD.dll
 0001:000055d2       ___p___mb_cur_max          100065d2 f MSVCRTD:MSVCRTD.dll
 0001:000055d8       _clock                     100065d8 f MSVCRTD:MSVCRTD.dll
 0001:000055de       _atoi                      100065de f MSVCRTD:MSVCRTD.dll
 0001:000055e4       _strcpy                    100065e4 f MSVCRTD:MSVCRTD.dll
 0001:000055ea       _strcat                    100065ea f MSVCRTD:MSVCRTD.dll
 0001:000055f0       _strlen                    100065f0 f MSVCRTD:MSVCRTD.dll
 0001:00005600       __CRT_INIT@12              10006600 f MSVCRTD:crtdll.obj
 0001:00005800       __DllMainCRTStartup@12     10006800 f MSVCRTD:crtdll.obj
 0001:00005940       __onexit                   10006940 f MSVCRTD:atonexit.obj
 0001:00005a10       _atexit                    10006a10 f MSVCRTD:atonexit.obj
 0001:00005a40       __free_dbg                 10006a40 f MSVCRTD:MSVCRTD.dll
 0001:00005a46       __initterm                 10006a46 f MSVCRTD:MSVCRTD.dll
 0001:00005a4c       __malloc_dbg               10006a4c f MSVCRTD:MSVCRTD.dll
 0001:00005a52       ___dllonexit               10006a52 f MSVCRTD:MSVCRTD.dll
 0001:00005a60       _GetVersion@0              10006a60 f kernel32:KERNEL32.dll
 0001:00005a66       _Sleep@4                   10006a66 f kernel32:KERNEL32.dll
 0001:00005a6c       __unlink                   10006a6c f MSVCRTD:MSVCRTD.dll
 0002:00000054       ??_C@_08JKC@crtdll?4c?$AA@ 10007054   MSVCRTD:crtdll.obj
 0003:00000000       ___xc_a                    10008000   MSVCRTD:cinitexe.obj
 0003:00000004       ___xc_z                    10008004   MSVCRTD:cinitexe.obj
 0003:00000008       ___xi_a                    10008008   MSVCRTD:cinitexe.obj
 0003:0000000c       ___xi_z                    1000800c   MSVCRTD:cinitexe.obj
 0003:00001770       _logpkt_fp                 10009770   WSTCPdll.obj
 0003:00001c14       ___win32sflag              10009c14   MSVCRTD:atonexit.obj
 0003:00001c30       _dp_dprintf                10009c30   <common>
 0003:00001c34       __adjust_fdiv              10009c34   <common>
 0003:00001c38       ___onexitend               10009c38   <common>
 0003:00001c3c       ___onexitbegin             10009c3c   <common>
 0003:00001c40       __pRawDllMain              10009c40   <common>
 0004:00000000       __IMPORT_DESCRIPTOR_KERNEL32 1000a000   kernel32:KERNEL32.dll
 0004:00000014       __IMPORT_DESCRIPTOR_WSOCK32 1000a014   wsock32:WSOCK32.dll
 0004:00000028       __IMPORT_DESCRIPTOR_ADVAPI32 1000a028   advapi32:ADVAPI32.dll
 0004:0000003c       __IMPORT_DESCRIPTOR_MSVCRTD 1000a03c   MSVCRTD:MSVCRTD.dll
 0004:00000050       __NULL_IMPORT_DESCRIPTOR   1000a050   kernel32:KERNEL32.dll
 0004:00000158       __imp__RegQueryValueExA@24 1000a158   advapi32:ADVAPI32.dll
 0004:0000015c       __imp__RegOpenKeyExA@20    1000a15c   advapi32:ADVAPI32.dll
 0004:00000160       __imp__RegSetValueExA@24   1000a160   advapi32:ADVAPI32.dll
 0004:00000164       \177ADVAPI32_NULL_THUNK_DATA 1000a164   advapi32:ADVAPI32.dll
 0004:00000168       __imp__GlobalAlloc@8       1000a168   kernel32:KERNEL32.dll
 0004:0000016c       __imp__GlobalFree@4        1000a16c   kernel32:KERNEL32.dll
 0004:00000170       __imp__GetSystemTime@4     1000a170   kernel32:KERNEL32.dll
 0004:00000174       __imp__OutputDebugStringA@4 1000a174   kernel32:KERNEL32.dll
 0004:00000178       __imp__LoadLibraryA@4      1000a178   kernel32:KERNEL32.dll
 0004:0000017c       __imp__GetTickCount@0      1000a17c   kernel32:KERNEL32.dll
 0004:00000180       __imp__FreeLibrary@4       1000a180   kernel32:KERNEL32.dll
 0004:00000184       __imp__Sleep@4             1000a184   kernel32:KERNEL32.dll
 0004:00000188       __imp__GetVersion@0        1000a188   kernel32:KERNEL32.dll
 0004:0000018c       __imp__GetProcAddress@8    1000a18c   kernel32:KERNEL32.dll
 0004:00000190       __imp__CloseHandle@4       1000a190   kernel32:KERNEL32.dll
 0004:00000194       \177KERNEL32_NULL_THUNK_DATA 1000a194   kernel32:KERNEL32.dll
 0004:00000198       __imp__memcpy              1000a198   MSVCRTD:MSVCRTD.dll
 0004:0000019c       __imp__fopen               1000a19c   MSVCRTD:MSVCRTD.dll
 0004:000001a0       __imp__memcmp              1000a1a0   MSVCRTD:MSVCRTD.dll
 0004:000001a4       __imp__sprintf             1000a1a4   MSVCRTD:MSVCRTD.dll
 0004:000001a8       __imp___onexit             1000a1a8   MSVCRTD:MSVCRTD.dll
 0004:000001ac       __imp____dllonexit         1000a1ac   MSVCRTD:MSVCRTD.dll
 0004:000001b0       __imp___adjust_fdiv        1000a1b0   MSVCRTD:MSVCRTD.dll
 0004:000001b4       __imp___malloc_dbg         1000a1b4   MSVCRTD:MSVCRTD.dll
 0004:000001b8       __imp___initterm           1000a1b8   MSVCRTD:MSVCRTD.dll
 0004:000001bc       __imp___free_dbg           1000a1bc   MSVCRTD:MSVCRTD.dll
 0004:000001c0       __imp__strlen              1000a1c0   MSVCRTD:MSVCRTD.dll
 0004:000001c4       __imp__strcat              1000a1c4   MSVCRTD:MSVCRTD.dll
 0004:000001c8       __imp__strcpy              1000a1c8   MSVCRTD:MSVCRTD.dll
 0004:000001cc       __imp__atoi                1000a1cc   MSVCRTD:MSVCRTD.dll
 0004:000001d0       __imp__clock               1000a1d0   MSVCRTD:MSVCRTD.dll
 0004:000001d4       __imp____p___mb_cur_max    1000a1d4   MSVCRTD:MSVCRTD.dll
 0004:000001d8       __imp___isctype            1000a1d8   MSVCRTD:MSVCRTD.dll
 0004:000001dc       __imp__memset              1000a1dc   MSVCRTD:MSVCRTD.dll
 0004:000001e0       __imp___assert             1000a1e0   MSVCRTD:MSVCRTD.dll
 0004:000001e4       __imp____p__pctype         1000a1e4   MSVCRTD:MSVCRTD.dll
 0004:000001e8       __imp__fclose              1000a1e8   MSVCRTD:MSVCRTD.dll
 0004:000001ec       __imp__unlink              1000a1ec   MSVCRTD:MSVCRTD.dll
 0004:000001ec       __imp___unlink             1000a1ec   MSVCRTD:MSVCRTD.dll
 0004:000001f0       __imp__rename              1000a1f0   MSVCRTD:MSVCRTD.dll
 0004:000001f4       __imp__fprintf             1000a1f4   MSVCRTD:MSVCRTD.dll
 0004:000001f8       \177MSVCRTD_NULL_THUNK_DATA 1000a1f8   MSVCRTD:MSVCRTD.dll
 0004:000001fc       __imp__ioctlsocket@12      1000a1fc   wsock32:WSOCK32.dll
 0004:00000200       __imp__ntohs@4             1000a200   wsock32:WSOCK32.dll
 0004:00000204       __imp__htons@4             1000a204   wsock32:WSOCK32.dll
 0004:00000208       __imp__bind@12             1000a208   wsock32:WSOCK32.dll
 0004:0000020c       __imp__inet_ntoa@4         1000a20c   wsock32:WSOCK32.dll
 0004:00000210       __imp__ntohl@4             1000a210   wsock32:WSOCK32.dll
 0004:00000214       __imp__WSACleanup@0        1000a214   wsock32:WSOCK32.dll
 0004:00000218       __imp__gethostname@8       1000a218   wsock32:WSOCK32.dll
 0004:0000021c       __imp__gethostbyname@4     1000a21c   wsock32:WSOCK32.dll
 0004:00000220       __imp__inet_addr@4         1000a220   wsock32:WSOCK32.dll
 0004:00000224       __imp__connect@12          1000a224   wsock32:WSOCK32.dll
 0004:00000228       __imp__closesocket@4       1000a228   wsock32:WSOCK32.dll
 0004:0000022c       __imp__sendto@24           1000a22c   wsock32:WSOCK32.dll
 0004:00000230       __imp__recvfrom@24         1000a230   wsock32:WSOCK32.dll
 0004:00000234       __imp__WSAStartup@8        1000a234   wsock32:WSOCK32.dll
 0004:00000238       __imp__socket@12           1000a238   wsock32:WSOCK32.dll
 0004:0000023c       __imp__getsockname@12      1000a23c   wsock32:WSOCK32.dll
 0004:00000240       __imp__WSAGetLastError@0   1000a240   wsock32:WSOCK32.dll
 0004:00000244       __imp__setsockopt@20       1000a244   wsock32:WSOCK32.dll
 0004:00000248       \177WSOCK32_NULL_THUNK_DATA 1000a248   wsock32:WSOCK32.dll

 entry point at        0001:00005800

 Static symbols

 0001:00004452       _commHdl2tcp               10005452 f WSTCPdll.obj
 0001:00004a86       _tcp2commHdl               10005a86 f WSTCPdll.obj
 0001:000021ff       _getsockerror              100031ff f WSTCP.obj
 0001:0000224f       _gethostaddr               1000324f f WSTCP.obj
 0001:000022d9       _gethostaddr_ping          100032d9 f WSTCP.obj
 0001:00002467       _gethostaddr_connect       10003467 f WSTCP.obj
 0001:00002579       _gethostaddr_gethostname   10003579 f WSTCP.obj
 0001:00005560       _$$$00001                  10006560 f MSVCRTD:chkstk.obj

FIXUPS: 1703 37 ba 27 37 4e 59 10 56 14 4f 3f cd d1 9b 48 61 fffff440 17f
FIXUPS: 12af 5737 35 fffffd21 13f 25 26 25 ffffdc56 5c 17 63 99 141 94
FIXUPS: 4a49 4e 1c 34 d 2b e0 1c 34 d 1b9 7e d 40 76 d a d 21 20 ffffd130
FIXUPS: 2346 fffff257 130 19 212c 12 3cd 16 4f 40 16 4f 94 c 12 179 f 3a
FIXUPS: 3f7e 1c 4c 20 a1 71 44 4c 20 a1 8c 43 3c f 1f 55 80 63 ffffeb83
FIXUPS: 3076 11 13 21 30 42 c 4f 1e 66 84 19 19 3f 49 1c 50 48 33 d 40
FIXUPS: 3498 e 12 25 2f 3a d 15 2a 1c 2e0e 1d 15 1d ffffbfdf 47 401 24
FIXUPS: 28e5 a5 17 51 2fd 12 48 4f 1d 25 21 52 23 19 45 23 51 1e 2e 1c
FIXUPS: 2ff1 c 26 21 208a 68 bb e 156 f 8c 356 14 23 76 149 2e 2d 62 1f
FIXUPS: 5a57 251 84 1c 3d 28 e9 30 3b e 34 12 175 188 15 13d
