 winets2

 Timestamp is 42320f82 (Fri Mar 11 22:37:06 2005)

 Preferred load address is 10000000

 Start         Length     Name                   Class
 0001:00000000 0000261eH .text                   CODE
 0002:00000000 000000a4H .idata$5                DATA
 0002:000000a4 00000050H .idata$2                DATA
 0002:000000f4 00000014H .idata$3                DATA
 0002:00000108 000000a4H .idata$4                DATA
 0002:000001ac 00000142H .idata$6                DATA
 0002:000002f0 000001c1H .edata                  DATA
 0003:00000000 00000004H .CRT$XCA                DATA
 0003:00000004 00000004H .CRT$XCZ                DATA
 0003:00000008 00000004H .CRT$XIA                DATA
 0003:0000000c 00000004H .CRT$XIZ                DATA
 0003:00000010 00000130H .data                   DATA
 0003:00000140 00000034H .bss                    DATA
 0004:00000000 0000007cH .rsrc$01                DATA
 0004:00000080 00000038H .rsrc$02                DATA

  Address         Publics by Value              Rva+Base     Lib:Object

 0001:00000000       _adialup_autodial_enabled  10001000 f   adialup.obj
 0001:00000081       _adialup_autodial_set      10001081 f   adialup.obj
 0001:000000e5       _adialup_is_active         100010e5 f   adialup.obj
 0001:00000234       _adialup_willdial          10001234 f   adialup.obj
 0001:00000270       _ddprintf                  10001270 f   ddprint.obj
 0001:00000280       _dcstNextKey               10001280 f   dictset.obj
 0001:000002c0       _dcstHashvalue             100012c0 f   dictset.obj
 0001:00000367       _dcstCreate                10001367 f   dictset.obj
 0001:00000510       _dcstDestroy               10001510 f   dictset.obj
 0001:00000545       _dcstAdd                   10001545 f   dictset.obj
 0001:0000060d       _dcstAddEx                 1000160d f   dictset.obj
 0001:000006dc       _dcstReplace               100016dc f   dictset.obj
 0001:00000707       _dcstReplaceEx             10001707 f   dictset.obj
 0001:00000736       _dcstDeleteValue           10001736 f   dictset.obj
 0001:00000761       _dcstDeleteKey             10001761 f   dictset.obj
 0001:0000085e       _dcstFindKey               1000185e f   dictset.obj
 0001:00000933       _dcstFindValue             10001933 f   dictset.obj
 0001:0000095c       _dcstForEach               1000195c f   dictset.obj
 0001:000009c7       _dcstFreeze                100019c7 f   dictset.obj
 0001:000009d1       _dcstThaw                  100019d1 f   dictset.obj
 0001:000009e0       _eclock_win32              100019e0 f   eclock.obj
 0001:00000a50       _TCPWIN_Create             10001a50 f   WSTCP.obj
 0001:00001369       _TCPWIN_Destroy            10002369 f   WSTCP.obj
 0001:00001397       _TCPWIN_Address2Handle     10002397 f   WSTCP.obj
 0001:000016a9       _TCPWIN_Handle2Address     100026a9 f   WSTCP.obj
 0001:00001726       _TCPWIN_PutPacket          10002726 f   WSTCP.obj
 0001:00001898       _TCPWIN_GetPacket          10002898 f   WSTCP.obj
 0001:000019e0       _commNoOp                  100029e0 f   WSTCPdll.obj
 0001:000019f9       _commEnumPorts             100029f9 f   WSTCPdll.obj
 0001:00001a0f       _commInit                  10002a0f f   WSTCPdll.obj
 0001:00001aa5       _commTerm                  10002aa5 f   WSTCPdll.obj
 0001:00001acc       _commDriverInfo            10002acc f   WSTCPdll.obj
 0001:00001af3       _commPlayerInfo            10002af3 f   WSTCPdll.obj
 0001:00001c31       _commTxFull                10002c31 f   WSTCPdll.obj
 0001:00001c50       _commTxPkt                 10002c50 f   WSTCPdll.obj
 0001:00001cfd       _commPeekPkt               10002cfd f   WSTCPdll.obj
 0001:00001d32       _commRxPkt                 10002d32 f   WSTCPdll.obj
 0001:00001eb3       _commScanAddr              10002eb3 f   WSTCPdll.obj
 0001:00002039       _commPrintAddr             10003039 f   WSTCPdll.obj
 0001:0000219a       _commGroupAlloc            1000319a f   WSTCPdll.obj
 0001:000021bb       _commGroupFree             100031bb f   WSTCPdll.obj
 0001:000021da       _commGroupAdd              100031da f   WSTCPdll.obj
 0001:000021f9       _commSetParam              100031f9 f   WSTCPdll.obj
 0001:00002265       _commSayHi                 10003265 f   WSTCPdll.obj
 0001:00002322       _commSayBye                10003322 f   WSTCPdll.obj
 0001:000023dc       _DllMain@12                100033dc f   WSTCPdll.obj
 0001:0000242e       _ioctlsocket@12            1000342e f   wsock32:WSOCK32.dll
 0001:00002434       _ntohs@4                   10003434 f   wsock32:WSOCK32.dll
 0001:0000243a       _getsockname@12            1000343a f   wsock32:WSOCK32.dll
 0001:00002440       _bind@12                   10003440 f   wsock32:WSOCK32.dll
 0001:00002446       _htons@4                   10003446 f   wsock32:WSOCK32.dll
 0001:0000244c       _setsockopt@20             1000344c f   wsock32:WSOCK32.dll
 0001:00002452       _socket@12                 10003452 f   wsock32:WSOCK32.dll
 0001:00002458       _WSAGetLastError@0         10003458 f   wsock32:WSOCK32.dll
 0001:0000245e       _WSAStartup@8              1000345e f   wsock32:WSOCK32.dll
 0001:00002464       _recvfrom@24               10003464 f   wsock32:WSOCK32.dll
 0001:0000246a       _sendto@24                 1000346a f   wsock32:WSOCK32.dll
 0001:00002470       _closesocket@4             10003470 f   wsock32:WSOCK32.dll
 0001:00002476       _connect@12                10003476 f   wsock32:WSOCK32.dll
 0001:0000247c       _inet_addr@4               1000347c f   wsock32:WSOCK32.dll
 0001:00002482       _gethostbyname@4           10003482 f   wsock32:WSOCK32.dll
 0001:00002488       _gethostname@8             10003488 f   wsock32:WSOCK32.dll
 0001:0000248e       _WSACleanup@0              1000348e f   wsock32:WSOCK32.dll
 0001:00002494       _inet_ntoa@4               10003494 f   wsock32:WSOCK32.dll
 0001:000024a0       __chkstk                   100034a0 f   MSVCRT:chkstk.obj
 0001:000024a0       __alloca_probe             100034a0 f   MSVCRT:chkstk.obj
 0001:000024cf       __CRT_INIT@12              100034cf f   MSVCRT:crtdll.obj
 0001:0000257a       __DllMainCRTStartup@12     1000357a f   MSVCRT:crtdll.obj
 0001:00002618       __initterm                 10003618 f   MSVCRT:MSVCRT.dll
 0002:00000000       __imp__RegQueryValueExA@24 10004000     advapi32:ADVAPI32.dll
 0002:00000004       __imp__RegSetValueExA@24   10004004     advapi32:ADVAPI32.dll
 0002:00000008       __imp__RegOpenKeyExA@20    10004008     advapi32:ADVAPI32.dll
 0002:0000000c       \177ADVAPI32_NULL_THUNK_DATA 1000400c     advapi32:ADVAPI32.dll
 0002:00000010       __imp__GlobalFree@4        10004010     kernel32:KERNEL32.dll
 0002:00000014       __imp__GlobalAlloc@8       10004014     kernel32:KERNEL32.dll
 0002:00000018       __imp__GetTickCount@0      10004018     kernel32:KERNEL32.dll
 0002:0000001c       __imp__LoadLibraryA@4      1000401c     kernel32:KERNEL32.dll
 0002:00000020       __imp__OutputDebugStringA@4 10004020     kernel32:KERNEL32.dll
 0002:00000024       __imp__GetProcAddress@8    10004024     kernel32:KERNEL32.dll
 0002:00000028       __imp__FreeLibrary@4       10004028     kernel32:KERNEL32.dll
 0002:0000002c       __imp__CloseHandle@4       1000402c     kernel32:KERNEL32.dll
 0002:00000030       __imp__GetSystemTime@4     10004030     kernel32:KERNEL32.dll
 0002:00000034       \177KERNEL32_NULL_THUNK_DATA 10004034     kernel32:KERNEL32.dll
 0002:00000038       __imp___initterm           10004038     MSVCRT:MSVCRT.dll
 0002:0000003c       __imp__free                1000403c     MSVCRT:MSVCRT.dll
 0002:00000040       __imp__atoi                10004040     MSVCRT:MSVCRT.dll
 0002:00000044       __imp__clock               10004044     MSVCRT:MSVCRT.dll
 0002:00000048       __imp__sprintf             10004048     MSVCRT:MSVCRT.dll
 0002:0000004c       __imp__malloc              1000404c     MSVCRT:MSVCRT.dll
 0002:00000050       __imp___adjust_fdiv        10004050     MSVCRT:MSVCRT.dll
 0002:00000054       \177MSVCRT_NULL_THUNK_DATA 10004054     MSVCRT:MSVCRT.dll
 0002:00000058       __imp__gethostbyname@4     10004058     wsock32:WSOCK32.dll
 0002:0000005c       __imp__gethostname@8       1000405c     wsock32:WSOCK32.dll
 0002:00000060       __imp__WSACleanup@0        10004060     wsock32:WSOCK32.dll
 0002:00000064       __imp__inet_ntoa@4         10004064     wsock32:WSOCK32.dll
 0002:00000068       __imp__inet_addr@4         10004068     wsock32:WSOCK32.dll
 0002:0000006c       __imp__connect@12          1000406c     wsock32:WSOCK32.dll
 0002:00000070       __imp__sendto@24           10004070     wsock32:WSOCK32.dll
 0002:00000074       __imp__recvfrom@24         10004074     wsock32:WSOCK32.dll
 0002:00000078       __imp__WSAStartup@8        10004078     wsock32:WSOCK32.dll
 0002:0000007c       __imp__WSAGetLastError@0   1000407c     wsock32:WSOCK32.dll
 0002:00000080       __imp__socket@12           10004080     wsock32:WSOCK32.dll
 0002:00000084       __imp__setsockopt@20       10004084     wsock32:WSOCK32.dll
 0002:00000088       __imp__htons@4             10004088     wsock32:WSOCK32.dll
 0002:0000008c       __imp__bind@12             1000408c     wsock32:WSOCK32.dll
 0002:00000090       __imp__getsockname@12      10004090     wsock32:WSOCK32.dll
 0002:00000094       __imp__ntohs@4             10004094     wsock32:WSOCK32.dll
 0002:00000098       __imp__ioctlsocket@12      10004098     wsock32:WSOCK32.dll
 0002:0000009c       __imp__closesocket@4       1000409c     wsock32:WSOCK32.dll
 0002:000000a0       \177WSOCK32_NULL_THUNK_DATA 100040a0     wsock32:WSOCK32.dll
 0002:000000a4       __IMPORT_DESCRIPTOR_KERNEL32 100040a4     kernel32:KERNEL32.dll
 0002:000000b8       __IMPORT_DESCRIPTOR_WSOCK32 100040b8     wsock32:WSOCK32.dll
 0002:000000cc       __IMPORT_DESCRIPTOR_ADVAPI32 100040cc     advapi32:ADVAPI32.dll
 0002:000000e0       __IMPORT_DESCRIPTOR_MSVCRT 100040e0     MSVCRT:MSVCRT.dll
 0002:000000f4       __NULL_IMPORT_DESCRIPTOR   100040f4     kernel32:KERNEL32.dll
 0003:00000000       ___xc_a                    10005000     MSVCRT:cinitexe.obj
 0003:00000004       ___xc_z                    10005004     MSVCRT:cinitexe.obj
 0003:00000008       ___xi_a                    10005008     MSVCRT:cinitexe.obj
 0003:0000000c       ___xi_z                    1000500c     MSVCRT:cinitexe.obj
 0003:00000160       _dp_dprintf                10005160     <common>
 0003:00000164       __adjust_fdiv              10005164     <common>
 0003:00000168       ___onexitend               10005168     <common>
 0003:0000016c       ___onexitbegin             1000516c     <common>
 0003:00000170       __pRawDllMain              10005170     <common>

 entry point at        0001:0000257a

 Static symbols

 0001:00001c02       _commHdl2tcp               10002c02 f   WSTCPdll.obj
 0001:00001e7c       _tcp2commHdl               10002e7c f   WSTCPdll.obj
 0001:00000ee6       _getsockerror              10001ee6 f   WSTCP.obj
 0001:00000f2d       _gethostaddr               10001f2d f   WSTCP.obj
 0001:00000f78       _gethostaddr_ping          10001f78 f   WSTCP.obj
 0001:0000109a       _gethostaddr_connect       1000209a f   WSTCP.obj
 0001:00001174       _gethostaddr_gethostname   10002174 f   WSTCP.obj
