 chat

 Timestamp is 3726f063 (Wed Apr 28 04:26:27 1999)

 Preferred load address is 00400000

 Start         Length     Name                   Class
 0001:00000000 00000cb0H .text                   CODE
 0002:00000000 0000001cH .rdata                  DATA
 0002:0000001c 00000000H .edata                  DATA
 0003:00000000 00000004H .CRT$XCA                DATA
 0003:00000004 00000004H .CRT$XCZ                DATA
 0003:00000008 00000004H .CRT$XIA                DATA
 0003:0000000c 00000004H .CRT$XIZ                DATA
 0003:00000010 0000050cH .data                   DATA
 0003:0000051c 0000000cH .bss                    DATA
 0004:00000000 0000003cH .idata$2                DATA
 0004:0000003c 00000014H .idata$3                DATA
 0004:00000050 000000bcH .idata$4                DATA
 0004:0000010c 000000bcH .idata$5                DATA
 0004:000001c8 000002aaH .idata$6                DATA

  Address         Publics by Value              Rva+Base   Lib:Object

 0001:00000000       @foo@0                     00401000 f chat.obj
 0001:00000020       @chat_broadcast@8          00401020 f chat.obj
 0001:00000090       @usage@0                   00401090 f chat.obj
 0001:000000b0       @chat@8                    004010b0 f chat.obj
 0001:00000960       _main                      00401960 f chat.obj
 0001:00000a00       @raw_set_stdio@4           00401a00 f raw.obj
 0001:00000a10       @raw_kbhit@0               00401a10 f raw.obj
 0001:00000a20       @raw_getc@0                00401a20 f raw.obj
 0001:00000a30       @eclock_win32@0            00401a30 f eclock.obj
 0001:00000ab0       _dpSend                    00401ab0 f anet2:anet2.dll
 0001:00000ab6       _dpGetPlayerName           00401ab6 f anet2:anet2.dll
 0001:00000abc       _dpReceive                 00401abc f anet2:anet2.dll
 0001:00000ac2       _dpShutdown                00401ac2 f anet2:anet2.dll
 0001:00000ac8       _dpGetGameServerEx         00401ac8 f anet2:anet2.dll
 0001:00000ace       _dpRequestObjectDeltas     00401ace f anet2:anet2.dll
 0001:00000ad4       _dpGetSessionId            00401ad4 f anet2:anet2.dll
 0001:00000ada       _dpGetSessionDesc          00401ada f anet2:anet2.dll
 0001:00000ae0       _dpCreate                  00401ae0 f anet2:anet2.dll
 0001:00000ae6       _dpDestroy                 00401ae6 f anet2:anet2.dll
 0001:00000aec       _dpReportCrash             00401aec f anet2:anet2.dll
 0001:00000b00       __except_handler3          00401b00 f MSVCRT:MSVCRT.dll
 0001:00000b10       _mainCRTStartup            00401b10 f MSVCRT:crtexe.obj
 0001:00000c5a       __XcptFilter               00401c5a f MSVCRT:MSVCRT.dll
 0001:00000c60       __initterm                 00401c60 f MSVCRT:MSVCRT.dll
 0001:00000c70       __setdefaultprecision      00401c70 f MSVCRT:fp8.obj
 0001:00000c90       __matherr                  00401c90 f MSVCRT:merr.obj
 0001:00000ca0       __setargv                  00401ca0 f MSVCRT:dllargv.obj
 0001:00000ca2       __controlfp                00401ca2 f MSVCRT:MSVCRT.dll
 0003:00000000       ___xc_a                    00403000   MSVCRT:cinitexe.obj
 0003:00000004       ___xc_z                    00403004   MSVCRT:cinitexe.obj
 0003:00000008       ___xi_a                    00403008   MSVCRT:cinitexe.obj
 0003:0000000c       ___xi_z                    0040300c   MSVCRT:cinitexe.obj
 0003:00000010       _my_id                     00403010   chat.obj
 0003:00000014       _quitState                 00403014   chat.obj
 0003:00000500       __dowildcard               00403500   MSVCRT:wildcard.obj
 0003:00000504       __newmode                  00403504   MSVCRT:_newmode.obj
 0003:00000508       ___defaultmatherr          00403508   MSVCRT:merr.obj
 0003:0000050c       __commode                  0040350c   MSVCRT:xncommod.obj
 0003:00000510       __fmode                    00403510   MSVCRT:xtxtmode.obj
 0003:00000514       ___win32sflag              00403514   MSVCRT:atonexit.obj
 0003:0000051c       ___onexitend               0040351c   <common>
 0003:00000520       ___onexitbegin             00403520   <common>
 0003:00000524       __adjust_fdiv              00403524   <common>
 0004:00000000       __IMPORT_DESCRIPTOR_anet2  00404000   anet2:anet2.dll
 0004:00000014       __IMPORT_DESCRIPTOR_MSVCRT 00404014   MSVCRT:MSVCRT.dll
 0004:00000028       __IMPORT_DESCRIPTOR_KERNEL32 00404028   kernel32:KERNEL32.dll
 0004:0000003c       __NULL_IMPORT_DESCRIPTOR   0040403c   anet2:anet2.dll
 0004:0000010c       __imp__GetTickCount@0      0040410c   kernel32:KERNEL32.dll
 0004:00000110       __imp__GetSystemTime@4     00404110   kernel32:KERNEL32.dll
 0004:00000114       __imp__GetProcAddress@8    00404114   kernel32:KERNEL32.dll
 0004:00000118       __imp__GetCommandLineA@0   00404118   kernel32:KERNEL32.dll
 0004:0000011c       __imp__GetModuleFileNameA@12 0040411c   kernel32:KERNEL32.dll
 0004:00000120       __imp__SetCurrentDirectoryA@4 00404120   kernel32:KERNEL32.dll
 0004:00000124       __imp__LoadLibraryA@4      00404124   kernel32:KERNEL32.dll
 0004:00000128       \177KERNEL32_NULL_THUNK_DATA 00404128   kernel32:KERNEL32.dll
 0004:0000012c       __imp___XcptFilter         0040412c   MSVCRT:MSVCRT.dll
 0004:00000130       __imp____p__commode        00404130   MSVCRT:MSVCRT.dll
 0004:00000134       __imp__exit                00404134   MSVCRT:MSVCRT.dll
 0004:00000138       __imp__printf              00404138   MSVCRT:MSVCRT.dll
 0004:0000013c       __imp___assert             0040413c   MSVCRT:MSVCRT.dll
 0004:00000140       __imp__putchar             00404140   MSVCRT:MSVCRT.dll
 0004:00000144       __imp__fflush              00404144   MSVCRT:MSVCRT.dll
 0004:00000148       __imp____p__iob            00404148   MSVCRT:MSVCRT.dll
 0004:0000014c       __imp__strchr              0040414c   MSVCRT:MSVCRT.dll
 0004:00000150       __imp__strrchr             00404150   MSVCRT:MSVCRT.dll
 0004:00000154       __imp___isctype            00404154   MSVCRT:MSVCRT.dll
 0004:00000158       __imp____p___mb_cur_max    00404158   MSVCRT:MSVCRT.dll
 0004:0000015c       __imp____p__pctype         0040415c   MSVCRT:MSVCRT.dll
 0004:00000160       __imp___except_handler3    00404160   MSVCRT:MSVCRT.dll
 0004:00000164       __imp___exit               00404164   MSVCRT:MSVCRT.dll
 0004:00000168       __imp____p___initenv       00404168   MSVCRT:MSVCRT.dll
 0004:0000016c       __imp___initterm           0040416c   MSVCRT:MSVCRT.dll
 0004:00000170       __imp____getmainargs       00404170   MSVCRT:MSVCRT.dll
 0004:00000174       __imp____setusermatherr    00404174   MSVCRT:MSVCRT.dll
 0004:00000178       __imp___adjust_fdiv        00404178   MSVCRT:MSVCRT.dll
 0004:0000017c       __imp___controlfp          0040417c   MSVCRT:MSVCRT.dll
 0004:00000180       __imp____p__fmode          00404180   MSVCRT:MSVCRT.dll
 0004:00000184       __imp____set_app_type      00404184   MSVCRT:MSVCRT.dll
 0004:00000188       __imp__getch               00404188   MSVCRT:MSVCRT.dll
 0004:00000188       __imp___getch              00404188   MSVCRT:MSVCRT.dll
 0004:0000018c       __imp___kbhit              0040418c   MSVCRT:MSVCRT.dll
 0004:0000018c       __imp__kbhit               0040418c   MSVCRT:MSVCRT.dll
 0004:00000190       __imp__getcwd              00404190   MSVCRT:MSVCRT.dll
 0004:00000190       __imp___getcwd             00404190   MSVCRT:MSVCRT.dll
 0004:00000194       \177MSVCRT_NULL_THUNK_DATA 00404194   MSVCRT:MSVCRT.dll
 0004:00000198       __imp__dpSend              00404198   anet2:anet2.dll
 0004:0000019c       __imp__dpDestroy           0040419c   anet2:anet2.dll
 0004:000001a0       __imp__dpGetSessionDesc    004041a0   anet2:anet2.dll
 0004:000001a4       __imp__dpGetSessionId      004041a4   anet2:anet2.dll
 0004:000001a8       __imp__dpRequestObjectDeltas 004041a8   anet2:anet2.dll
 0004:000001ac       __imp__dpGetGameServerEx   004041ac   anet2:anet2.dll
 0004:000001b0       __imp__dpShutdown          004041b0   anet2:anet2.dll
 0004:000001b4       __imp__dpReceive           004041b4   anet2:anet2.dll
 0004:000001b8       __imp__dpGetPlayerName     004041b8   anet2:anet2.dll
 0004:000001bc       __imp__dpCreate            004041bc   anet2:anet2.dll
 0004:000001c0       __imp__dpReportCrash       004041c0   anet2:anet2.dll
 0004:000001c4       \177anet2_NULL_THUNK_DATA  004041c4   anet2:anet2.dll

 entry point at        0001:00000b10

 Static symbols

 0001:00000760       @quit@8                    00401760 f chat.obj
 0001:000007b0       @status2a@4                004017b0 f chat.obj
 0001:000007f0       @cdToAppDir@0              004017f0 f chat.obj
 0001:00000850       @getargv@8                 00401850 f chat.obj
 0001:000009d0       _Debug_ExceptionFilter     004019d0 f chat.obj

FIXUPS: 1b85 1c f 39 1f 23 fffff44a 70 c 71 2b 34 2a 1a 20 12 23 18 23
FIXUPS: 12af 23 29 64 10 40 24 db 3f 72 a4 79 f0 a 5f 1c0 e 36 2a2
